target datalayout = "e-m:e-p270:32:32-p271:32:32-p272:64:64-i64:64-i128:128-f80:128-n8:16:32:64-S128"
target triple = "x86_64-pc-linux-gnu"

%struct.portalhashent = type { [64 x i8], ptr }
%struct.PortalData = type { ptr, ptr, ptr, ptr, ptr, i32, i32, i32, ptr, i32, %struct.QueryCompletion, ptr, ptr, ptr, ptr, i32, i32, i32, i8, i8, ptr, ptr, ptr, ptr, ptr, ptr, ptr, i8, i8, i64, i64, i8 }
%struct.QueryCompletion = type { i32, i64 }
%struct.HASH_SEQ_STATUS = type { ptr, i32, ptr, i8, i32 }

@PortalHashTable = internal global ptr null, align 8

; Function Attrs: nounwind uwtable
define dso_local void @PortalErrorCleanup() #0 {
  %1 = alloca %struct.HASH_SEQ_STATUS, align 8
  %2 = alloca ptr, align 8
  %3 = alloca ptr, align 8
  call void @llvm.lifetime.start.p0(i64 32, ptr %1) #6
  call void @llvm.lifetime.start.p0(i64 8, ptr %2) #6
  %4 = load ptr, ptr @PortalHashTable, align 8
  call void @hash_seq_init(ptr noundef %1, ptr noundef %4)
  br label %5

5:                                                ; preds = %20, %0
  %6 = call ptr @hash_seq_search(ptr noundef %1)
  store ptr %6, ptr %2, align 8
  %7 = icmp ne ptr %6, null
  br i1 %7, label %8, label %21

8:                                                ; preds = %5
  call void @llvm.lifetime.start.p0(i64 8, ptr %3) #6
  %9 = load ptr, ptr %2, align 8
  %10 = getelementptr inbounds nuw %struct.portalhashent, ptr %9, i32 0, i32 1
  %11 = load ptr, ptr %10, align 8
  store ptr %11, ptr %3, align 8
  %12 = load ptr, ptr %3, align 8
  %13 = getelementptr inbounds nuw %struct.PortalData, ptr %12, i32 0, i32 19
  %14 = load i8, ptr %13, align 1, !range !4, !noundef !5
  %15 = trunc i8 %14 to i1
  br i1 %15, label %16, label %20

16:                                               ; preds = %8
  %17 = load ptr, ptr %3, align 8
  %18 = getelementptr inbounds nuw %struct.PortalData, ptr %17, i32 0, i32 18
  store i8 0, ptr %18, align 4
  %19 = load ptr, ptr %3, align 8
  call void @PortalDrop(ptr noundef %19, i1 noundef zeroext false)
  br label %20

20:                                               ; preds = %16, %8
  call void @llvm.lifetime.end.p0(i64 8, ptr %3) #6
  br label %5, !llvm.loop !12

21:                                               ; preds = %5
  call void @llvm.lifetime.end.p0(i64 8, ptr %2) #6
  call void @llvm.lifetime.end.p0(i64 32, ptr %1) #6
  ret void
}