; Function Attrs: nounwind uwtable
define dso_local void @PortalErrorCleanup() local_unnamed_addr #0 {
  %1 = alloca %struct.HASH_SEQ_STATUS, align 8
  call void @llvm.lifetime.start.p0(i64 32, ptr nonnull %1) #8
  %2 = load ptr, ptr @PortalHashTable, align 8
  call void @hash_seq_init(ptr noundef nonnull %1, ptr noundef %2) #8
  %3 = call ptr @hash_seq_search(ptr noundef nonnull %1) #8
  %.not4 = icmp eq ptr %3, null
  br i1 %.not4, label %._crit_edge, label %.lr.ph

.lr.ph:                                           ; preds = %0, %12
  %4 = phi ptr [ %13, %12 ], [ %3, %0 ]
  %5 = getelementptr inbounds nuw i8, ptr %4, i64 64
  %6 = load ptr, ptr %5, align 8
  %7 = getelementptr inbounds nuw i8, ptr %6, i64 133
  %8 = load i8, ptr %7, align 1, !range !4, !noundef !5
  %9 = trunc nuw i8 %8 to i1
  br i1 %9, label %10, label %12

10:                                               ; preds = %.lr.ph
  %11 = getelementptr inbounds nuw i8, ptr %6, i64 132
  store i8 0, ptr %11, align 4
  call void @PortalDrop(ptr noundef nonnull %6, i1 noundef zeroext false)
  br label %12

12:                                               ; preds = %10, %.lr.ph
  %13 = call ptr @hash_seq_search(ptr noundef nonnull %1) #8
  %.not = icmp eq ptr %13, null
  br i1 %.not, label %._crit_edge, label %.lr.ph, !llvm.loop !11

._crit_edge:                                      ; preds = %12, %0
  call void @llvm.lifetime.end.p0(i64 32, ptr nonnull %1) #8
  ret void
}